target datalayout = "e-m:e-p270:32:32-p271:32:32-p272:64:64-i64:64-i128:128-f80:128-n8:16:32:64-S128"
target triple = "x86_64-pc-linux-gnu"

@ett_http_ntlmssp = internal global i32 0, align 4
@.str.488 = private unnamed_addr constant [7 x i8] c"Digest\00", align 1

; Function Attrs: null_pointer_is_valid sspstrong uwtable
define internal zeroext i1 @check_auth_digest(ptr noundef %0, ptr noundef %1, ptr noundef %2, ptr noundef %3, i32 noundef %4, i32 noundef %5) #0 {
  %7 = alloca i1, align 1
  %8 = alloca ptr, align 8
  %9 = alloca ptr, align 8
  %10 = alloca ptr, align 8
  %11 = alloca ptr, align 8
  %12 = alloca i32, align 4
  %13 = alloca i32, align 4
  %14 = alloca ptr, align 8
  %15 = alloca i32, align 4
  %16 = alloca i32, align 4
  store ptr %0, ptr %8, align 8
  store ptr %1, ptr %9, align 8
  store ptr %2, ptr %10, align 8
  store ptr %3, ptr %11, align 8
  store i32 %4, ptr %12, align 4
  store i32 %5, ptr %13, align 4
  call void @llvm.lifetime.start.p0(i64 8, ptr %14) #19
  call void @llvm.lifetime.start.p0(i64 4, ptr %15) #19
  %17 = load ptr, ptr %11, align 8
  %18 = call i32 @strncmp(ptr noundef %17, ptr noundef @.str.488, i64 noundef 6) #20
  %19 = icmp eq i32 %18, 0
  br i1 %19, label %20, label %61

20:                                               ; preds = %6
  %21 = load ptr, ptr %8, align 8
  %22 = icmp ne ptr %21, null
  br i1 %22, label %23, label %27

23:                                               ; preds = %20
  %24 = load ptr, ptr %8, align 8
  %25 = load i32, ptr @ett_http_ntlmssp, align 4
  %26 = call ptr @proto_item_add_subtree(ptr noundef %24, i32 noundef %25)
  store ptr %26, ptr %14, align 8
  br label %28

27:                                               ; preds = %20
  store ptr null, ptr %14, align 8
  br label %28

28:                                               ; preds = %27, %23
  %29 = load i32, ptr %12, align 4
  %30 = add i32 %29, 21
  store i32 %30, ptr %12, align 4
  %31 = load i32, ptr %13, align 4
  %32 = sub i32 %31, 21
  store i32 %32, ptr %13, align 4
  br label %33

33:                                               ; preds = %59, %28
  %34 = load i32, ptr %13, align 4
  %35 = icmp sgt i32 %34, 0
  br i1 %35, label %36, label %60

36:                                               ; preds = %33
  %37 = load ptr, ptr %9, align 8
  %38 = load i32, ptr %12, align 4
  %39 = load i32, ptr %13, align 4
  %40 = call i32 @tvb_find_uint8(ptr noundef %37, i32 noundef %38, i32 noundef %39, i8 noundef zeroext 44)
  store i32 %40, ptr %15, align 4
  %41 = load i32, ptr %15, align 4
  %42 = icmp sgt i32 %41, 0
  br i1 %42, label %43, label %58

43:                                               ; preds = %36
  %44 = load ptr, ptr %14, align 8
  %45 = load ptr, ptr %9, align 8
  %46 = load i32, ptr %12, align 4
  %47 = load i32, ptr %15, align 4
  %48 = load i32, ptr %12, align 4
  %49 = sub i32 %47, %48
  %50 = call ptr @proto_tree_add_format_text(ptr noundef %44, ptr noundef %45, i32 noundef %46, i32 noundef %49)
  %51 = load i32, ptr %15, align 4
  %52 = load i32, ptr %12, align 4
  %53 = sub i32 %51, %52
  %54 = load i32, ptr %13, align 4
  %55 = sub i32 %54, %53
  store i32 %55, ptr %13, align 4
  %56 = load i32, ptr %15, align 4
  %57 = add i32 %56, 1
  store i32 %57, ptr %12, align 4
  br label %59

58:                                               ; preds = %36
  store i32 0, ptr %13, align 4
  br label %59

59:                                               ; preds = %58, %43
  br label %33, !llvm.loop !34

60:                                               ; preds = %33
  store i1 true, ptr %7, align 1
  store i32 1, ptr %16, align 4
  br label %62

61:                                               ; preds = %6
  store i1 false, ptr %7, align 1
  store i32 1, ptr %16, align 4
  br label %62

62:                                               ; preds = %61, %60
  call void @llvm.lifetime.end.p0(i64 4, ptr %15) #19
  call void @llvm.lifetime.end.p0(i64 8, ptr %14) #19
  %63 = load i1, ptr %7, align 1
  ret i1 %63
}