; Function Attrs: null_pointer_is_valid sspstrong uwtable
define internal fastcc noundef zeroext i1 @check_auth_digest(ptr noundef %0, ptr noundef %1, ptr noundef readonly captures(none) %2, i32 noundef %3, i32 noundef %4) unnamed_addr #0 {
  %6 = tail call i32 @strncmp(ptr noundef %2, ptr noundef nonnull dereferenceable(7) @.str.488, i64 noundef 6) #20
  %7 = icmp eq i32 %6, 0
  br i1 %7, label %8, label %.loopexit

8:                                                ; preds = %5
  %.not = icmp eq ptr %0, null
  br i1 %.not, label %12, label %9

9:                                                ; preds = %8
  %10 = load i32, ptr @ett_http_ntlmssp, align 4
  %11 = tail call ptr @proto_item_add_subtree(ptr noundef nonnull %0, i32 noundef %10)
  br label %12

12:                                               ; preds = %8, %9
  %.019 = phi ptr [ %11, %9 ], [ null, %8 ]
  %13 = add i32 %4, -21
  %14 = icmp sgt i32 %13, 0
  br i1 %14, label %.lr.ph.preheader, label %.loopexit

.lr.ph.preheader:                                 ; preds = %12
  %15 = add i32 %3, 21
  br label %.lr.ph

.lr.ph:                                           ; preds = %.lr.ph.preheader, %18
  %.0202 = phi i32 [ %21, %18 ], [ %13, %.lr.ph.preheader ]
  %.0211 = phi i32 [ %22, %18 ], [ %15, %.lr.ph.preheader ]
  %16 = tail call i32 @tvb_find_uint8(ptr noundef %1, i32 noundef %.0211, i32 noundef %.0202, i8 noundef zeroext 44)
  %17 = icmp sgt i32 %16, 0
  br i1 %17, label %18, label %.loopexit

18:                                               ; preds = %.lr.ph
  %19 = sub i32 %16, %.0211
  %20 = tail call ptr @proto_tree_add_format_text(ptr noundef %.019, ptr noundef %1, i32 noundef %.0211, i32 noundef %19)
  %21 = sub i32 %.0202, %19
  %22 = add nuw i32 %16, 1
  %23 = icmp sgt i32 %21, 0
  br i1 %23, label %.lr.ph, label %.loopexit, !llvm.loop !35

.loopexit:                                        ; preds = %.lr.ph, %18, %12, %5
  ret i1 %7
}